target datalayout = "e-m:e-p270:32:32-p271:32:32-p272:64:64-i64:64-i128:128-f80:128-n8:16:32:64-S128"
target triple = "x86_64-pc-linux-gnu"

%struct.pmix_mca_base_framework_t = type { ptr, ptr, ptr, ptr, ptr, ptr, i32, i32, ptr, ptr, i32, i32, %struct.pmix_list_t, %struct.pmix_list_t }
%struct.pmix_list_t = type { %struct.pmix_object_t, %struct.pmix_list_item_t, i64 }
%struct.pmix_object_t = type { %union.pthread_mutex_t, ptr, i32, %struct.pmix_tma }
%union.pthread_mutex_t = type { %struct.__pthread_mutex_s }
%struct.__pthread_mutex_s = type { i32, i32, i32, i32, i32, i16, i16, %struct.__pthread_internal_list }
%struct.__pthread_internal_list = type { ptr, ptr }
%struct.pmix_tma = type { ptr, ptr, ptr, ptr, ptr, ptr, ptr, ptr }
%struct.pmix_list_item_t = type { %struct.pmix_object_t, ptr, ptr, i32 }
%struct.pmix_output_desc_t = type { i8, i8, i32, i8, i32, ptr, ptr, i32, ptr, i32, i8, i8, i8, i8, ptr, i32, i32 }
%struct.pmix_globals_t = type { i32, %struct.pmix_proc, %struct.pmix_value, %struct.pmix_value, ptr, i32, i32, ptr, i32, i32, i32, i32, i32, ptr, ptr, i32, %struct.pmix_events_t, i8, i8, %struct.timeval, %struct.pmix_list_t, %struct.pmix_pointer_array_t, i32, i32, %struct.pmix_hotel_t, i8, %struct.pmix_list_t, i8, i8, i8, i64, %struct.pmix_list_t, %struct.pmix_topology_t, %struct.pmix_cpuset_t, i8, i8, %struct.pmix_iof_flags_t, %struct.pmix_keyindex_t }
%struct.pmix_proc = type { [256 x i8], i32 }
%struct.pmix_value = type { i16, %union.anon.7 }
%union.anon.7 = type { %struct.pmix_envar_t }
%struct.pmix_envar_t = type { ptr, ptr, i8 }
%struct.pmix_events_t = type { %struct.pmix_object_t, i64, ptr, ptr, %struct.pmix_list_t, %struct.pmix_list_t, %struct.pmix_list_t, %struct.pmix_list_t }
%struct.timeval = type { i64, i64 }
%struct.pmix_pointer_array_t = type { %struct.pmix_object_t, i32, i32, i32, i32, i32, ptr, ptr }
%struct.pmix_hotel_t = type { %struct.pmix_object_t, i32, ptr, %struct.timeval, ptr, ptr, ptr, ptr, i32 }
%struct.pmix_topology_t = type { ptr, ptr }
%struct.pmix_cpuset_t = type { ptr, ptr }
%struct.pmix_iof_flags_t = type { i8, i8, i8, i8, i8, i8, i8, ptr, ptr, i8, i8, i8, i8, i8, i8 }
%struct.pmix_keyindex_t = type { %struct.pmix_object_t, ptr, i32 }
%struct.sockaddr_in = type { i16, i16, %struct.in_addr, [8 x i8] }
%struct.in_addr = type { i32 }
%struct.sockaddr_storage = type { i16, [118 x i8], i64 }
%struct.sockaddr = type { i16, [14 x i8] }

@pmix_ptl_base_framework = external global %struct.pmix_mca_base_framework_t, align 8
@pmix_output_info = external global [0 x %struct.pmix_output_desc_t], align 8
@pmix_globals = external global %struct.pmix_globals_t, align 8
@.str.47 = private unnamed_addr constant [31 x i8] c"ptl:tool: Using interface: %s \00", align 1
@.str.48 = private unnamed_addr constant [18 x i8] c"help-ptl-base.txt\00", align 1
@.str.49 = private unnamed_addr constant [21 x i8] c"invalid if_inexclude\00", align 1
@.str.50 = private unnamed_addr constant [36 x i8] c"Invalid specification (missing \22/\22)\00", align 1
@.str.51 = private unnamed_addr constant [43 x i8] c"Invalid specification (inet_pton() failed)\00", align 1
@.str.52 = private unnamed_addr constant [51 x i8] c"ptl:base: Searching for %s address+prefix: %s / %u\00", align 1
@.str.53 = private unnamed_addr constant [31 x i8] c"ptl:base: Found match: %s (%s)\00", align 1
@.str.54 = private unnamed_addr constant [44 x i8] c"Did not find interface matching this subnet\00", align 1

; Function Attrs: inlinehint nounwind willreturn memory(read) uwtable
define available_externally i32 @atoi(ptr noundef nonnull %0) #8 {
  %2 = alloca ptr, align 8
  store ptr %0, ptr %2, align 8, !tbaa !8
  %3 = load ptr, ptr %2, align 8, !tbaa !8
  %4 = call i64 @strtol(ptr noundef %3, ptr noundef null, i32 noundef 10) #13
  %5 = trunc i64 %4 to i32
  ret i32 %5
}

; Function Attrs: nounwind uwtable
define ptr @pmix_ptl_base_split_and_resolve(ptr noundef %0, ptr noundef %1) #0 {
  %3 = alloca ptr, align 8
  %4 = alloca ptr, align 8
  %5 = alloca ptr, align 8
  %6 = alloca i32, align 4
  %7 = alloca i32, align 4
  %8 = alloca i32, align 4
  %9 = alloca ptr, align 8
  %10 = alloca ptr, align 8
  %11 = alloca ptr, align 8
  %12 = alloca [256 x i8], align 16
  %13 = alloca %struct.sockaddr_storage, align 8
  %14 = alloca %struct.sockaddr_storage, align 8
  %15 = alloca i32, align 4
  %16 = alloca i8, align 1
  %17 = alloca i32, align 4
  store ptr %0, ptr %4, align 8, !tbaa !8
  store ptr %1, ptr %5, align 8, !tbaa !8
  call void @llvm.lifetime.start.p0(i64 4, ptr %6) #13
  call void @llvm.lifetime.start.p0(i64 4, ptr %7) #13
  call void @llvm.lifetime.start.p0(i64 4, ptr %8) #13
  call void @llvm.lifetime.start.p0(i64 8, ptr %9) #13
  call void @llvm.lifetime.start.p0(i64 8, ptr %10) #13
  call void @llvm.lifetime.start.p0(i64 8, ptr %11) #13
  call void @llvm.lifetime.start.p0(i64 256, ptr %12) #13
  call void @llvm.lifetime.start.p0(i64 128, ptr %13) #13
  call void @llvm.lifetime.start.p0(i64 128, ptr %14) #13
  call void @llvm.lifetime.start.p0(i64 4, ptr %15) #13
  call void @llvm.lifetime.start.p0(i64 1, ptr %16) #13
  %18 = load ptr, ptr %4, align 8, !tbaa !8
  %19 = icmp eq ptr null, %18
  br i1 %19, label %20, label %21

20:                                               ; preds = %2
  store ptr null, ptr %3, align 8
  store i32 1, ptr %17, align 4
  br label %192

21:                                               ; preds = %2
  %22 = load ptr, ptr %4, align 8, !tbaa !8
  %23 = call ptr @PMIx_Argv_split(ptr noundef %22, i32 noundef 44)
  store ptr %23, ptr %9, align 8, !tbaa !62
  store ptr null, ptr %10, align 8, !tbaa !62
  store i32 0, ptr %6, align 4, !tbaa !60
  br label %24

24:                                               ; preds = %186, %21
  %25 = load ptr, ptr %9, align 8, !tbaa !62
  %26 = load i32, ptr %6, align 4, !tbaa !60
  %27 = sext i32 %26 to i64
  %28 = getelementptr inbounds ptr, ptr %25, i64 %27
  %29 = load ptr, ptr %28, align 8, !tbaa !8
  %30 = icmp ne ptr null, %29
  br i1 %30, label %31, label %189

31:                                               ; preds = %24
  %32 = call ptr @__ctype_b_loc() #15
  %33 = load ptr, ptr %32, align 8, !tbaa !196
  %34 = load ptr, ptr %9, align 8, !tbaa !62
  %35 = load i32, ptr %6, align 4, !tbaa !60
  %36 = sext i32 %35 to i64
  %37 = getelementptr inbounds ptr, ptr %34, i64 %36
  %38 = load ptr, ptr %37, align 8, !tbaa !8
  %39 = getelementptr inbounds i8, ptr %38, i64 0
  %40 = load i8, ptr %39, align 1, !tbaa !32
  %41 = sext i8 %40 to i32
  %42 = sext i32 %41 to i64
  %43 = getelementptr inbounds i16, ptr %33, i64 %42
  %44 = load i16, ptr %43, align 2, !tbaa !131
  %45 = zext i16 %44 to i32
  %46 = and i32 %45, 1024
  %47 = icmp ne i32 %46, 0
  br i1 %47, label %48, label %75

48:                                               ; preds = %31
  %49 = load ptr, ptr %9, align 8, !tbaa !62
  %50 = load i32, ptr %6, align 4, !tbaa !60
  %51 = sext i32 %50 to i64
  %52 = getelementptr inbounds ptr, ptr %49, i64 %51
  %53 = load ptr, ptr %52, align 8, !tbaa !8
  %54 = call i32 @PMIx_Argv_append_unique_nosize(ptr noundef %10, ptr noundef %53)
  %55 = load i32, ptr getelementptr inbounds nuw (%struct.pmix_mca_base_framework_t, ptr @pmix_ptl_base_framework, i32 0, i32 11), align 4, !tbaa !37
  %56 = icmp sge i32 %55, 0
  br i1 %56, label %57, label %74

57:                                               ; preds = %48
  %58 = load i32, ptr getelementptr inbounds nuw (%struct.pmix_mca_base_framework_t, ptr @pmix_ptl_base_framework, i32 0, i32 11), align 4, !tbaa !37
  %59 = icmp slt i32 %58, 64
  br i1 %59, label %60, label %74

60:                                               ; preds = %57
  %61 = load i32, ptr getelementptr inbounds nuw (%struct.pmix_mca_base_framework_t, ptr @pmix_ptl_base_framework, i32 0, i32 11), align 4, !tbaa !37
  %62 = sext i32 %61 to i64
  %63 = getelementptr inbounds [0 x %struct.pmix_output_desc_t], ptr @pmix_output_info, i64 0, i64 %62
  %64 = getelementptr inbounds nuw %struct.pmix_output_desc_t, ptr %63, i32 0, i32 2
  %65 = load i32, ptr %64, align 4, !tbaa !40
  %66 = icmp sge i32 %65, 20
  br i1 %66, label %67, label %74

67:                                               ; preds = %60
  %68 = load i32, ptr getelementptr inbounds nuw (%struct.pmix_mca_base_framework_t, ptr @pmix_ptl_base_framework, i32 0, i32 11), align 4, !tbaa !37
  %69 = load ptr, ptr %9, align 8, !tbaa !62
  %70 = load i32, ptr %6, align 4, !tbaa !60
  %71 = sext i32 %70 to i64
  %72 = getelementptr inbounds ptr, ptr %69, i64 %71
  %73 = load ptr, ptr %72, align 8, !tbaa !8
  call void (i32, ptr, ...) @pmix_output(i32 noundef %68, ptr noundef @.str.47, ptr noundef %73)
  br label %74

74:                                               ; preds = %67, %60, %57, %48
  br label %186

75:                                               ; preds = %31
  store i32 0, ptr %15, align 4, !tbaa !60
  %76 = load ptr, ptr %9, align 8, !tbaa !62
  %77 = load i32, ptr %6, align 4, !tbaa !60
  %78 = sext i32 %77 to i64
  %79 = getelementptr inbounds ptr, ptr %76, i64 %78
  %80 = load ptr, ptr %79, align 8, !tbaa !8
  %81 = call ptr @strchr(ptr noundef %80, i32 noundef 47) #14
  store ptr %81, ptr %11, align 8, !tbaa !8
  %82 = load ptr, ptr %11, align 8, !tbaa !8
  %83 = icmp eq ptr null, %82
  br i1 %83, label %84, label %93

84:                                               ; preds = %75
  %85 = load ptr, ptr %5, align 8, !tbaa !8
  %86 = load ptr, ptr getelementptr inbounds nuw (%struct.pmix_globals_t, ptr @pmix_globals, i32 0, i32 7), align 8, !tbaa !198
  %87 = load ptr, ptr %9, align 8, !tbaa !62
  %88 = load i32, ptr %6, align 4, !tbaa !60
  %89 = sext i32 %88 to i64
  %90 = getelementptr inbounds ptr, ptr %87, i64 %89
  %91 = load ptr, ptr %90, align 8, !tbaa !8
  %92 = call i32 (ptr, ptr, i32, ...) @pmix_show_help(ptr noundef @.str.48, ptr noundef @.str.49, i32 noundef 1, ptr noundef %85, ptr noundef %86, ptr noundef %91, ptr noundef @.str.50)
  br label %186

93:                                               ; preds = %75
  %94 = load ptr, ptr %11, align 8, !tbaa !8
  store i8 0, ptr %94, align 1, !tbaa !32
  %95 = load ptr, ptr %11, align 8, !tbaa !8
  %96 = getelementptr inbounds i8, ptr %95, i64 1
  %97 = call i32 @atoi(ptr noundef %96) #14
  store i32 %97, ptr %15, align 4, !tbaa !60
  %98 = getelementptr inbounds nuw %struct.sockaddr, ptr %13, i32 0, i32 0
  store i16 2, ptr %98, align 8, !tbaa !199
  %99 = load ptr, ptr %9, align 8, !tbaa !62
  %100 = load i32, ptr %6, align 4, !tbaa !60
  %101 = sext i32 %100 to i64
  %102 = getelementptr inbounds ptr, ptr %99, i64 %101
  %103 = load ptr, ptr %102, align 8, !tbaa !8
  %104 = getelementptr inbounds nuw %struct.sockaddr_in, ptr %13, i32 0, i32 2
  %105 = call i32 @inet_pton(i32 noundef 2, ptr noundef %103, ptr noundef %104) #13
  store i32 %105, ptr %7, align 4, !tbaa !60
  %106 = load ptr, ptr %11, align 8, !tbaa !8
  store i8 47, ptr %106, align 1, !tbaa !32
  %107 = load i32, ptr %7, align 4, !tbaa !60
  %108 = icmp ne i32 1, %107
  br i1 %108, label %109, label %118

109:                                              ; preds = %93
  %110 = load ptr, ptr %5, align 8, !tbaa !8
  %111 = load ptr, ptr getelementptr inbounds nuw (%struct.pmix_globals_t, ptr @pmix_globals, i32 0, i32 7), align 8, !tbaa !198
  %112 = load ptr, ptr %9, align 8, !tbaa !62
  %113 = load i32, ptr %6, align 4, !tbaa !60
  %114 = sext i32 %113 to i64
  %115 = getelementptr inbounds ptr, ptr %112, i64 %114
  %116 = load ptr, ptr %115, align 8, !tbaa !8
  %117 = call i32 (ptr, ptr, i32, ...) @pmix_show_help(ptr noundef @.str.48, ptr noundef @.str.49, i32 noundef 1, ptr noundef %110, ptr noundef %111, ptr noundef %116, ptr noundef @.str.51)
  br label %186

118:                                              ; preds = %93
  %119 = load i32, ptr getelementptr inbounds nuw (%struct.pmix_mca_base_framework_t, ptr @pmix_ptl_base_framework, i32 0, i32 11), align 4, !tbaa !37
  %120 = icmp sge i32 %119, 0
  br i1 %120, label %121, label %136

121:                                              ; preds = %118
  %122 = load i32, ptr getelementptr inbounds nuw (%struct.pmix_mca_base_framework_t, ptr @pmix_ptl_base_framework, i32 0, i32 11), align 4, !tbaa !37
  %123 = icmp slt i32 %122, 64
  br i1 %123, label %124, label %136

124:                                              ; preds = %121
  %125 = load i32, ptr getelementptr inbounds nuw (%struct.pmix_mca_base_framework_t, ptr @pmix_ptl_base_framework, i32 0, i32 11), align 4, !tbaa !37
  %126 = sext i32 %125 to i64
  %127 = getelementptr inbounds [0 x %struct.pmix_output_desc_t], ptr @pmix_output_info, i64 0, i64 %126
  %128 = getelementptr inbounds nuw %struct.pmix_output_desc_t, ptr %127, i32 0, i32 2
  %129 = load i32, ptr %128, align 4, !tbaa !40
  %130 = icmp sge i32 %129, 20
  br i1 %130, label %131, label %136

131:                                              ; preds = %124
  %132 = load i32, ptr getelementptr inbounds nuw (%struct.pmix_mca_base_framework_t, ptr @pmix_ptl_base_framework, i32 0, i32 11), align 4, !tbaa !37
  %133 = load ptr, ptr %5, align 8, !tbaa !8
  %134 = call ptr @pmix_net_get_hostname(ptr noundef %13)
  %135 = load i32, ptr %15, align 4, !tbaa !60
  call void (i32, ptr, ...) @pmix_output(i32 noundef %132, ptr noundef @.str.52, ptr noundef %133, ptr noundef %134, i32 noundef %135)
  br label %136

136:                                              ; preds = %131, %124, %121, %118
  store i8 0, ptr %16, align 1, !tbaa !89
  %137 = call i32 @pmix_ifbegin()
  store i32 %137, ptr %8, align 4, !tbaa !60
  br label %138

138:                                              ; preds = %170, %136
  %139 = load i32, ptr %8, align 4, !tbaa !60
  %140 = icmp sge i32 %139, 0
  br i1 %140, label %141, label %173

141:                                              ; preds = %138
  %142 = load i32, ptr %8, align 4, !tbaa !60
  %143 = call i32 @pmix_ifindextoaddr(i32 noundef %142, ptr noundef %14, i32 noundef 128)
  %144 = load i32, ptr %15, align 4, !tbaa !60
  %145 = call zeroext i1 @pmix_net_samenetwork(ptr noundef %13, ptr noundef %14, i32 noundef %144)
  br i1 %145, label %146, label %169

146:                                              ; preds = %141
  store i8 1, ptr %16, align 1, !tbaa !89
  %147 = load i32, ptr %8, align 4, !tbaa !60
  %148 = getelementptr inbounds [256 x i8], ptr %12, i64 0, i64 0
  %149 = call i32 @pmix_ifindextoname(i32 noundef %147, ptr noundef %148, i32 noundef 256)
  %150 = getelementptr inbounds [256 x i8], ptr %12, i64 0, i64 0
  %151 = call i32 @PMIx_Argv_append_unique_nosize(ptr noundef %10, ptr noundef %150)
  %152 = load i32, ptr getelementptr inbounds nuw (%struct.pmix_mca_base_framework_t, ptr @pmix_ptl_base_framework, i32 0, i32 11), align 4, !tbaa !37
  %153 = icmp sge i32 %152, 0
  br i1 %153, label %154, label %168

154:                                              ; preds = %146
  %155 = load i32, ptr getelementptr inbounds nuw (%struct.pmix_mca_base_framework_t, ptr @pmix_ptl_base_framework, i32 0, i32 11), align 4, !tbaa !37
  %156 = icmp slt i32 %155, 64
  br i1 %156, label %157, label %168

157:                                              ; preds = %154
  %158 = load i32, ptr getelementptr inbounds nuw (%struct.pmix_mca_base_framework_t, ptr @pmix_ptl_base_framework, i32 0, i32 11), align 4, !tbaa !37
  %159 = sext i32 %158 to i64
  %160 = getelementptr inbounds [0 x %struct.pmix_output_desc_t], ptr @pmix_output_info, i64 0, i64 %159
  %161 = getelementptr inbounds nuw %struct.pmix_output_desc_t, ptr %160, i32 0, i32 2
  %162 = load i32, ptr %161, align 4, !tbaa !40
  %163 = icmp sge i32 %162, 20
  br i1 %163, label %164, label %168

164:                                              ; preds = %157
  %165 = load i32, ptr getelementptr inbounds nuw (%struct.pmix_mca_base_framework_t, ptr @pmix_ptl_base_framework, i32 0, i32 11), align 4, !tbaa !37
  %166 = call ptr @pmix_net_get_hostname(ptr noundef %14)
  %167 = getelementptr inbounds [256 x i8], ptr %12, i64 0, i64 0
  call void (i32, ptr, ...) @pmix_output(i32 noundef %165, ptr noundef @.str.53, ptr noundef %166, ptr noundef %167)
  br label %168

168:                                              ; preds = %164, %157, %154, %146
  br label %169

169:                                              ; preds = %168, %141
  br label %170

170:                                              ; preds = %169
  %171 = load i32, ptr %8, align 4, !tbaa !60
  %172 = call i32 @pmix_ifnext(i32 noundef %171)
  store i32 %172, ptr %8, align 4, !tbaa !60
  br label %138, !llvm.loop !201

173:                                              ; preds = %138
  %174 = load i8, ptr %16, align 1, !tbaa !89, !range !92, !noundef !93
  %175 = trunc i8 %174 to i1
  br i1 %175, label %185, label %176

176:                                              ; preds = %173
  %177 = load ptr, ptr %5, align 8, !tbaa !8
  %178 = load ptr, ptr getelementptr inbounds nuw (%struct.pmix_globals_t, ptr @pmix_globals, i32 0, i32 7), align 8, !tbaa !198
  %179 = load ptr, ptr %9, align 8, !tbaa !62
  %180 = load i32, ptr %6, align 4, !tbaa !60
  %181 = sext i32 %180 to i64
  %182 = getelementptr inbounds ptr, ptr %179, i64 %181
  %183 = load ptr, ptr %182, align 8, !tbaa !8
  %184 = call i32 (ptr, ptr, i32, ...) @pmix_show_help(ptr noundef @.str.48, ptr noundef @.str.49, i32 noundef 1, ptr noundef %177, ptr noundef %178, ptr noundef %183, ptr noundef @.str.54)
  br label %185

185:                                              ; preds = %176, %173
  br label %186

186:                                              ; preds = %185, %109, %84, %74
  %187 = load i32, ptr %6, align 4, !tbaa !60
  %188 = add nsw i32 %187, 1
  store i32 %188, ptr %6, align 4, !tbaa !60
  br label %24, !llvm.loop !202

189:                                              ; preds = %24
  %190 = load ptr, ptr %9, align 8, !tbaa !62
  call void @PMIx_Argv_free(ptr noundef %190)
  %191 = load ptr, ptr %10, align 8, !tbaa !62
  store ptr %191, ptr %3, align 8
  store i32 1, ptr %17, align 4
  br label %192

192:                                              ; preds = %189, %20
  call void @llvm.lifetime.end.p0(i64 1, ptr %16) #13
  call void @llvm.lifetime.end.p0(i64 4, ptr %15) #13
  call void @llvm.lifetime.end.p0(i64 128, ptr %14) #13
  call void @llvm.lifetime.end.p0(i64 128, ptr %13) #13
  call void @llvm.lifetime.end.p0(i64 256, ptr %12) #13
  call void @llvm.lifetime.end.p0(i64 8, ptr %11) #13
  call void @llvm.lifetime.end.p0(i64 8, ptr %10) #13
  call void @llvm.lifetime.end.p0(i64 8, ptr %9) #13
  call void @llvm.lifetime.end.p0(i64 4, ptr %8) #13
  call void @llvm.lifetime.end.p0(i64 4, ptr %7) #13
  call void @llvm.lifetime.end.p0(i64 4, ptr %6) #13
  %193 = load ptr, ptr %3, align 8
  ret ptr %193
}