; Function Attrs: nounwind uwtable
define ptr @pmix_ptl_base_split_and_resolve(ptr noundef %0, ptr noundef %1) local_unnamed_addr #0 {
  %3 = alloca ptr, align 8
  %4 = alloca [256 x i8], align 16
  %5 = alloca %struct.sockaddr_storage, align 8
  %6 = alloca %struct.sockaddr_storage, align 8
  call void @llvm.lifetime.start.p0(i64 8, ptr nonnull %3) #20
  call void @llvm.lifetime.start.p0(i64 256, ptr nonnull %4) #20
  call void @llvm.lifetime.start.p0(i64 128, ptr nonnull %5) #20
  call void @llvm.lifetime.start.p0(i64 128, ptr nonnull %6) #20
  %7 = icmp eq ptr %0, null
  br i1 %7, label %83, label %8

8:                                                ; preds = %2
  %9 = tail call ptr @PMIx_Argv_split(ptr noundef nonnull %0, i32 noundef 44) #20
  store ptr null, ptr %3, align 8, !tbaa !177
  %10 = load ptr, ptr %9, align 8, !tbaa !29
  %.not56 = icmp eq ptr %10, null
  br i1 %.not56, label %._crit_edge60, label %.lr.ph59

.lr.ph59:                                         ; preds = %8
  %11 = tail call ptr @__ctype_b_loc() #22
  %12 = getelementptr inbounds nuw i8, ptr %5, i64 4
  br label %13

13:                                               ; preds = %.lr.ph59, %79
  %indvars.iv = phi i64 [ 0, %.lr.ph59 ], [ %indvars.iv.next, %79 ]
  %14 = phi ptr [ %10, %.lr.ph59 ], [ %81, %79 ]
  %15 = getelementptr inbounds nuw ptr, ptr %9, i64 %indvars.iv
  %16 = load ptr, ptr %11, align 8, !tbaa !179
  %17 = load i8, ptr %14, align 1, !tbaa !28
  %18 = sext i8 %17 to i64
  %19 = getelementptr inbounds i16, ptr %16, i64 %18
  %20 = load i16, ptr %19, align 2, !tbaa !116
  %21 = and i16 %20, 1024
  %.not52 = icmp eq i16 %21, 0
  br i1 %.not52, label %32, label %22

22:                                               ; preds = %13
  %23 = call i32 @PMIx_Argv_append_unique_nosize(ptr noundef nonnull %3, ptr noundef nonnull %14) #20
  %24 = load i32, ptr getelementptr inbounds nuw (i8, ptr @pmix_ptl_base_framework, i64 76), align 4, !tbaa !34
  %or.cond = icmp ult i32 %24, 64
  br i1 %or.cond, label %25, label %79

25:                                               ; preds = %22
  %26 = zext nneg i32 %24 to i64
  %27 = getelementptr inbounds nuw [0 x %struct.pmix_output_desc_t], ptr @pmix_output_info, i64 0, i64 %26, i32 2
  %28 = load i32, ptr %27, align 4, !tbaa !37
  %29 = icmp sgt i32 %28, 19
  br i1 %29, label %30, label %79

30:                                               ; preds = %25
  %31 = load ptr, ptr %15, align 8, !tbaa !29
  call void (i32, ptr, ...) @pmix_output(i32 noundef %24, ptr noundef nonnull @.str.47, ptr noundef %31) #20
  br label %79

32:                                               ; preds = %13
  %33 = call ptr @strchr(ptr noundef nonnull dereferenceable(1) %14, i32 noundef 47) #21
  %34 = icmp eq ptr %33, null
  br i1 %34, label %35, label %38

35:                                               ; preds = %32
  %36 = load ptr, ptr getelementptr inbounds nuw (i8, ptr @pmix_globals, i64 344), align 8, !tbaa !181
  %37 = call i32 (ptr, ptr, i32, ...) @pmix_show_help(ptr noundef nonnull @.str.48, ptr noundef nonnull @.str.49, i32 noundef 1, ptr noundef %1, ptr noundef %36, ptr noundef nonnull %14, ptr noundef nonnull @.str.50) #20
  br label %79

38:                                               ; preds = %32
  store i8 0, ptr %33, align 1, !tbaa !28
  %39 = getelementptr inbounds nuw i8, ptr %33, i64 1
  %40 = call i64 @strtol(ptr noundef nonnull captures(none) %39, ptr noundef null, i32 noundef 10) #20
  %41 = trunc i64 %40 to i32
  store i16 2, ptr %5, align 8, !tbaa !182
  %42 = load ptr, ptr %15, align 8, !tbaa !29
  %43 = call i32 @inet_pton(i32 noundef 2, ptr noundef %42, ptr noundef nonnull %12) #20
  store i8 47, ptr %33, align 1, !tbaa !28
  %.not53 = icmp eq i32 %43, 1
  br i1 %.not53, label %48, label %44

44:                                               ; preds = %38
  %45 = load ptr, ptr getelementptr inbounds nuw (i8, ptr @pmix_globals, i64 344), align 8, !tbaa !181
  %46 = load ptr, ptr %15, align 8, !tbaa !29
  %47 = call i32 (ptr, ptr, i32, ...) @pmix_show_help(ptr noundef nonnull @.str.48, ptr noundef nonnull @.str.49, i32 noundef 1, ptr noundef %1, ptr noundef %45, ptr noundef %46, ptr noundef nonnull @.str.51) #20
  br label %79

48:                                               ; preds = %38
  %49 = load i32, ptr getelementptr inbounds nuw (i8, ptr @pmix_ptl_base_framework, i64 76), align 4, !tbaa !34
  %or.cond3 = icmp ult i32 %49, 64
  br i1 %or.cond3, label %50, label %57

50:                                               ; preds = %48
  %51 = zext nneg i32 %49 to i64
  %52 = getelementptr inbounds nuw [0 x %struct.pmix_output_desc_t], ptr @pmix_output_info, i64 0, i64 %51, i32 2
  %53 = load i32, ptr %52, align 4, !tbaa !37
  %54 = icmp sgt i32 %53, 19
  br i1 %54, label %55, label %57

55:                                               ; preds = %50
  %56 = call ptr @pmix_net_get_hostname(ptr noundef nonnull %5) #20
  call void (i32, ptr, ...) @pmix_output(i32 noundef %49, ptr noundef nonnull @.str.52, ptr noundef %1, ptr noundef %56, i32 noundef %41) #20
  br label %57

57:                                               ; preds = %55, %50, %48
  %58 = call i32 @pmix_ifbegin() #20
  %59 = icmp sgt i32 %58, -1
  br i1 %59, label %.lr.ph, label %.critedge

.lr.ph:                                           ; preds = %57, %73
  %.055 = phi i1 [ %.1, %73 ], [ false, %57 ]
  %.04554 = phi i32 [ %74, %73 ], [ %58, %57 ]
  %60 = call i32 @pmix_ifindextoaddr(i32 noundef %.04554, ptr noundef nonnull %6, i32 noundef 128) #20
  %61 = call zeroext i1 @pmix_net_samenetwork(ptr noundef nonnull %5, ptr noundef nonnull %6, i32 noundef %41) #20
  br i1 %61, label %62, label %73

62:                                               ; preds = %.lr.ph
  %63 = call i32 @pmix_ifindextoname(i32 noundef %.04554, ptr noundef nonnull %4, i32 noundef 256) #20
  %64 = call i32 @PMIx_Argv_append_unique_nosize(ptr noundef nonnull %3, ptr noundef nonnull %4) #20
  %65 = load i32, ptr getelementptr inbounds nuw (i8, ptr @pmix_ptl_base_framework, i64 76), align 4, !tbaa !34
  %or.cond5 = icmp ult i32 %65, 64
  br i1 %or.cond5, label %66, label %73

66:                                               ; preds = %62
  %67 = zext nneg i32 %65 to i64
  %68 = getelementptr inbounds nuw [0 x %struct.pmix_output_desc_t], ptr @pmix_output_info, i64 0, i64 %67, i32 2
  %69 = load i32, ptr %68, align 4, !tbaa !37
  %70 = icmp sgt i32 %69, 19
  br i1 %70, label %71, label %73

71:                                               ; preds = %66
  %72 = call ptr @pmix_net_get_hostname(ptr noundef nonnull %6) #20
  call void (i32, ptr, ...) @pmix_output(i32 noundef %65, ptr noundef nonnull @.str.53, ptr noundef %72, ptr noundef nonnull %4) #20
  br label %73

73:                                               ; preds = %.lr.ph, %71, %66, %62
  %.1 = phi i1 [ true, %71 ], [ true, %66 ], [ true, %62 ], [ %.055, %.lr.ph ]
  %74 = call i32 @pmix_ifnext(i32 noundef %.04554) #20
  %75 = icmp sgt i32 %74, -1
  br i1 %75, label %.lr.ph, label %._crit_edge, !llvm.loop !184

._crit_edge:                                      ; preds = %73
  br i1 %.1, label %79, label %.critedge

.critedge:                                        ; preds = %57, %._crit_edge
  %76 = load ptr, ptr getelementptr inbounds nuw (i8, ptr @pmix_globals, i64 344), align 8, !tbaa !181
  %77 = load ptr, ptr %15, align 8, !tbaa !29
  %78 = call i32 (ptr, ptr, i32, ...) @pmix_show_help(ptr noundef nonnull @.str.48, ptr noundef nonnull @.str.49, i32 noundef 1, ptr noundef %1, ptr noundef %76, ptr noundef %77, ptr noundef nonnull @.str.54) #20
  br label %79

79:                                               ; preds = %._crit_edge, %.critedge, %22, %25, %30, %44, %35
  %indvars.iv.next = add nuw nsw i64 %indvars.iv, 1
  %80 = getelementptr inbounds nuw ptr, ptr %9, i64 %indvars.iv.next
  %81 = load ptr, ptr %80, align 8, !tbaa !29
  %.not = icmp eq ptr %81, null
  br i1 %.not, label %._crit_edge60, label %13, !llvm.loop !185

._crit_edge60:                                    ; preds = %79, %8
  call void @PMIx_Argv_free(ptr noundef nonnull %9) #20
  %82 = load ptr, ptr %3, align 8, !tbaa !177
  br label %83

83:                                               ; preds = %2, %._crit_edge60
  %.043 = phi ptr [ %82, %._crit_edge60 ], [ null, %2 ]
  call void @llvm.lifetime.end.p0(i64 128, ptr nonnull %6) #20
  call void @llvm.lifetime.end.p0(i64 128, ptr nonnull %5) #20
  call void @llvm.lifetime.end.p0(i64 256, ptr nonnull %4) #20
  call void @llvm.lifetime.end.p0(i64 8, ptr nonnull %3) #20
  ret ptr %.043
}